target datalayout = "e-m:e-p270:32:32-p271:32:32-p272:64:64-i64:64-i128:128-f80:128-n8:16:32:64-S128"
target triple = "x86_64-pc-linux-gnu"

@.str.207 = private unnamed_addr constant [3 x i8] c"rb\00", align 1
@.str.253 = private unnamed_addr constant [8 x i8] c"%s.info\00", align 1
@.str.326 = private unnamed_addr constant [2 x i8] c"/\00", align 1
@.str.513 = private unnamed_addr constant [29 x i8] c"verifydiff: strdup() failed\0A\00", align 1
@.str.514 = private unnamed_addr constant [31 x i8] c"verifydiff: Invalid diff name\0A\00", align 1
@.str.515 = private unnamed_addr constant [27 x i8] c"verifydiff: Can't open %s\0A\00", align 1
@.str.516 = private unnamed_addr constant [11 x i8] c"ClamAV-VDB\00", align 1
@.str.517 = private unnamed_addr constant [36 x i8] c"verifydiff: Incorrect info file %s\0A\00", align 1
@.str.518 = private unnamed_addr constant [5 x i8] c"DSIG\00", align 1
@.str.519 = private unnamed_addr constant [36 x i8] c"verifydiff: Incorrect format of %s\0A\00", align 1
@.str.520 = private unnamed_addr constant [42 x i8] c"verifydiff: Can't generate SHA256 for %s\0A\00", align 1
@.str.521 = private unnamed_addr constant [39 x i8] c"verifydiff: %s has incorrect checksum\0A\00", align 1

; Function Attrs: nounwind uwtable
define internal i32 @comparesha(ptr noundef %0) #0 {
  %2 = alloca i32, align 4
  %3 = alloca ptr, align 8
  %4 = alloca [32 x i8], align 16
  %5 = alloca [8192 x i8], align 16
  %6 = alloca ptr, align 8
  %7 = alloca ptr, align 8
  %8 = alloca ptr, align 8
  %9 = alloca [3 x ptr], align 16
  %10 = alloca ptr, align 8
  %11 = alloca i32, align 4
  %12 = alloca i32, align 4
  store ptr %0, ptr %3, align 8
  store i32 0, ptr %11, align 4
  %13 = load ptr, ptr %3, align 8
  %14 = call noalias ptr @strdup(ptr noundef %13) #11
  store ptr %14, ptr %8, align 8
  %15 = load ptr, ptr %8, align 8
  %16 = icmp ne ptr %15, null
  br i1 %16, label %18, label %17

17:                                               ; preds = %1
  call void (i32, ptr, ...) @mprintf(i32 noundef 5, ptr noundef @.str.513)
  store i32 -1, ptr %2, align 4
  br label %117

18:                                               ; preds = %1
  %19 = load ptr, ptr %8, align 8
  %20 = call ptr @strrchr(ptr noundef %19, i32 noundef 45) #14
  store ptr %20, ptr %7, align 8
  %21 = icmp ne ptr %20, null
  br i1 %21, label %22, label %35

22:                                               ; preds = %18
  %23 = call ptr @__ctype_b_loc() #17
  %24 = load ptr, ptr %23, align 8
  %25 = load ptr, ptr %7, align 8
  %26 = getelementptr inbounds i8, ptr %25, i64 1
  %27 = load i8, ptr %26, align 1
  %28 = sext i8 %27 to i32
  %29 = sext i32 %28 to i64
  %30 = getelementptr inbounds i16, ptr %24, i64 %29
  %31 = load i16, ptr %30, align 2
  %32 = zext i16 %31 to i32
  %33 = and i32 %32, 2048
  %34 = icmp ne i32 %33, 0
  br i1 %34, label %37, label %35

35:                                               ; preds = %22, %18
  call void (i32, ptr, ...) @mprintf(i32 noundef 5, ptr noundef @.str.514)
  %36 = load ptr, ptr %8, align 8
  call void @free(ptr noundef %36) #11
  store i32 -1, ptr %2, align 4
  br label %117

37:                                               ; preds = %22
  %38 = load ptr, ptr %7, align 8
  store i8 0, ptr %38, align 1
  %39 = load ptr, ptr %8, align 8
  %40 = load i8, ptr @.str.326, align 1
  %41 = sext i8 %40 to i32
  %42 = call ptr @strrchr(ptr noundef %39, i32 noundef %41) #14
  store ptr %42, ptr %7, align 8
  %43 = icmp ne ptr %42, null
  br i1 %43, label %44, label %47

44:                                               ; preds = %37
  %45 = load ptr, ptr %7, align 8
  %46 = getelementptr inbounds i8, ptr %45, i32 1
  store ptr %46, ptr %7, align 8
  br label %49

47:                                               ; preds = %37
  %48 = load ptr, ptr %8, align 8
  store ptr %48, ptr %7, align 8
  br label %49

49:                                               ; preds = %47, %44
  %50 = getelementptr inbounds [32 x i8], ptr %4, i64 0, i64 0
  %51 = load ptr, ptr %7, align 8
  %52 = call i32 (ptr, i64, ptr, ...) @snprintf(ptr noundef %50, i64 noundef 32, ptr noundef @.str.253, ptr noundef %51) #11
  %53 = load ptr, ptr %8, align 8
  call void @free(ptr noundef %53) #11
  %54 = getelementptr inbounds [32 x i8], ptr %4, i64 0, i64 0
  %55 = call noalias ptr @fopen(ptr noundef %54, ptr noundef @.str.207)
  store ptr %55, ptr %10, align 8
  %56 = icmp ne ptr %55, null
  br i1 %56, label %59, label %57

57:                                               ; preds = %49
  %58 = getelementptr inbounds [32 x i8], ptr %4, i64 0, i64 0
  call void (i32, ptr, ...) @mprintf(i32 noundef 5, ptr noundef @.str.515, ptr noundef %58)
  store i32 -1, ptr %2, align 4
  br label %117

59:                                               ; preds = %49
  %60 = getelementptr inbounds [8192 x i8], ptr %5, i64 0, i64 0
  %61 = load ptr, ptr %10, align 8
  %62 = call ptr @fgets(ptr noundef %60, i32 noundef 8192, ptr noundef %61)
  %63 = icmp ne ptr %62, null
  br i1 %63, label %64, label %68

64:                                               ; preds = %59
  %65 = getelementptr inbounds [8192 x i8], ptr %5, i64 0, i64 0
  %66 = call i32 @strncmp(ptr noundef %65, ptr noundef @.str.516, i64 noundef 10) #14
  %67 = icmp ne i32 %66, 0
  br i1 %67, label %68, label %72

68:                                               ; preds = %64, %59
  %69 = getelementptr inbounds [32 x i8], ptr %4, i64 0, i64 0
  call void (i32, ptr, ...) @mprintf(i32 noundef 5, ptr noundef @.str.517, ptr noundef %69)
  %70 = load ptr, ptr %10, align 8
  %71 = call i32 @fclose(ptr noundef %70)
  store i32 -1, ptr %2, align 4
  br label %117

72:                                               ; preds = %64
  br label %73

73:                                               ; preds = %111, %92, %72
  %74 = getelementptr inbounds [8192 x i8], ptr %5, i64 0, i64 0
  %75 = load ptr, ptr %10, align 8
  %76 = call ptr @fgets(ptr noundef %74, i32 noundef 8192, ptr noundef %75)
  %77 = icmp ne ptr %76, null
  br i1 %77, label %78, label %113

78:                                               ; preds = %73
  %79 = getelementptr inbounds [8192 x i8], ptr %5, i64 0, i64 0
  %80 = call i32 @cli_chomp(ptr noundef %79)
  %81 = getelementptr inbounds [8192 x i8], ptr %5, i64 0, i64 0
  %82 = getelementptr inbounds [3 x ptr], ptr %9, i64 0, i64 0
  %83 = call i64 @cli_strtokenize(ptr noundef %81, i8 noundef signext 58, i64 noundef 3, ptr noundef %82)
  %84 = trunc i64 %83 to i32
  store i32 %84, ptr %12, align 4
  %85 = load i32, ptr %12, align 4
  %86 = icmp ne i32 %85, 3
  br i1 %86, label %87, label %95

87:                                               ; preds = %78
  %88 = getelementptr inbounds [3 x ptr], ptr %9, i64 0, i64 0
  %89 = load ptr, ptr %88, align 16
  %90 = call i32 @strcmp(ptr noundef %89, ptr noundef @.str.518) #14
  %91 = icmp ne i32 %90, 0
  br i1 %91, label %93, label %92

92:                                               ; preds = %87
  br label %73

93:                                               ; preds = %87
  %94 = getelementptr inbounds [32 x i8], ptr %4, i64 0, i64 0
  call void (i32, ptr, ...) @mprintf(i32 noundef 5, ptr noundef @.str.519, ptr noundef %94)
  store i32 -1, ptr %11, align 4
  br label %113

95:                                               ; preds = %78
  %96 = getelementptr inbounds [3 x ptr], ptr %9, i64 0, i64 0
  %97 = load ptr, ptr %96, align 16
  %98 = call ptr @sha256file(ptr noundef %97, ptr noundef null)
  store ptr %98, ptr %6, align 8
  %99 = icmp ne ptr %98, null
  br i1 %99, label %102, label %100

100:                                              ; preds = %95
  %101 = getelementptr inbounds [8192 x i8], ptr %5, i64 0, i64 0
  call void (i32, ptr, ...) @mprintf(i32 noundef 5, ptr noundef @.str.520, ptr noundef %101)
  store i32 -1, ptr %11, align 4
  br label %113

102:                                              ; preds = %95
  %103 = load ptr, ptr %6, align 8
  %104 = getelementptr inbounds [3 x ptr], ptr %9, i64 0, i64 2
  %105 = load ptr, ptr %104, align 16
  %106 = call i32 @strcmp(ptr noundef %103, ptr noundef %105) #14
  %107 = icmp ne i32 %106, 0
  br i1 %107, label %108, label %111

108:                                              ; preds = %102
  %109 = getelementptr inbounds [8192 x i8], ptr %5, i64 0, i64 0
  call void (i32, ptr, ...) @mprintf(i32 noundef 5, ptr noundef @.str.521, ptr noundef %109)
  store i32 -1, ptr %11, align 4
  %110 = load ptr, ptr %6, align 8
  call void @free(ptr noundef %110) #11
  br label %113

111:                                              ; preds = %102
  %112 = load ptr, ptr %6, align 8
  call void @free(ptr noundef %112) #11
  br label %73

113:                                              ; preds = %108, %100, %93, %73
  %114 = load ptr, ptr %10, align 8
  %115 = call i32 @fclose(ptr noundef %114)
  %116 = load i32, ptr %11, align 4
  store i32 %116, ptr %2, align 4
  br label %117

117:                                              ; preds = %113, %68, %57, %35, %17
  %118 = load i32, ptr %2, align 4
  ret i32 %118
}