; Function Attrs: nounwind uwtable
define internal fastcc noundef i32 @comparesha(ptr nocapture noundef readonly %0) unnamed_addr #0 {
  %2 = alloca [32 x i8], align 16
  %3 = alloca [8192 x i8], align 16
  %4 = alloca [3 x ptr], align 16
  %5 = tail call noalias ptr @strdup(ptr noundef %0) #25
  %.not = icmp eq ptr %5, null
  br i1 %.not, label %6, label %7

6:                                                ; preds = %1
  tail call void (i32, ptr, ...) @mprintf(i32 noundef 5, ptr noundef nonnull @.str.513) #25
  br label %50

7:                                                ; preds = %1
  %8 = tail call ptr @strrchr(ptr noundef nonnull dereferenceable(1) %5, i32 noundef 45) #31
  %.not27 = icmp eq ptr %8, null
  br i1 %.not27, label %18, label %9

9:                                                ; preds = %7
  %10 = tail call ptr @__ctype_b_loc() #29
  %11 = load ptr, ptr %10, align 8
  %12 = getelementptr inbounds i8, ptr %8, i64 1
  %13 = load i8, ptr %12, align 1
  %14 = sext i8 %13 to i64
  %15 = getelementptr inbounds i16, ptr %11, i64 %14
  %16 = load i16, ptr %15, align 2
  %17 = and i16 %16, 2048
  %.not28 = icmp eq i16 %17, 0
  br i1 %.not28, label %18, label %19

18:                                               ; preds = %9, %7
  tail call void (i32, ptr, ...) @mprintf(i32 noundef 5, ptr noundef nonnull @.str.514) #25
  tail call void @free(ptr noundef nonnull %5) #25
  br label %50

19:                                               ; preds = %9
  store i8 0, ptr %8, align 1
  %20 = tail call ptr @strrchr(ptr noundef nonnull dereferenceable(1) %5, i32 noundef 47) #31
  %.not29 = icmp eq ptr %20, null
  %21 = getelementptr inbounds i8, ptr %20, i64 1
  %.021 = select i1 %.not29, ptr %5, ptr %21
  %22 = call i32 (ptr, i64, ptr, ...) @snprintf(ptr noundef nonnull dereferenceable(1) %2, i64 noundef 32, ptr noundef nonnull @.str.253, ptr noundef nonnull %.021) #25
  tail call void @free(ptr noundef nonnull %5) #25
  %23 = call noalias ptr @fopen(ptr noundef nonnull %2, ptr noundef nonnull @.str.207)
  %.not30 = icmp eq ptr %23, null
  br i1 %.not30, label %24, label %25

24:                                               ; preds = %19
  call void (i32, ptr, ...) @mprintf(i32 noundef 5, ptr noundef nonnull @.str.515, ptr noundef nonnull %2) #25
  br label %50

25:                                               ; preds = %19
  %26 = call ptr @fgets(ptr noundef nonnull %3, i32 noundef 8192, ptr noundef nonnull %23)
  %.not31 = icmp eq ptr %26, null
  br i1 %.not31, label %30, label %27

27:                                               ; preds = %25
  %bcmp = call i32 @bcmp(ptr noundef nonnull dereferenceable(10) %3, ptr noundef nonnull dereferenceable(10) @.str.516, i64 10)
  %.not32 = icmp eq i32 %bcmp, 0
  br i1 %.not32, label %.preheader, label %30

.preheader:                                       ; preds = %27
  %28 = call ptr @fgets(ptr noundef nonnull %3, i32 noundef 8192, ptr noundef nonnull %23)
  %.not3339 = icmp eq ptr %28, null
  br i1 %.not3339, label %.loopexit, label %.lr.ph

.lr.ph:                                           ; preds = %.preheader
  %29 = getelementptr inbounds i8, ptr %4, i64 16
  br label %32

30:                                               ; preds = %27, %25
  call void (i32, ptr, ...) @mprintf(i32 noundef 5, ptr noundef nonnull @.str.517, ptr noundef nonnull %2) #25
  %31 = call i32 @fclose(ptr noundef nonnull %23)
  br label %50

32:                                               ; preds = %.lr.ph, %.backedge
  %33 = call i32 @cli_chomp(ptr noundef nonnull %3) #25
  %34 = call i64 @cli_strtokenize(ptr noundef nonnull %3, i8 noundef signext 58, i64 noundef 3, ptr noundef nonnull %4) #25
  %35 = and i64 %34, 4294967295
  %.not34 = icmp eq i64 %35, 3
  %36 = load ptr, ptr %4, align 16
  br i1 %.not34, label %40, label %37

37:                                               ; preds = %32
  %38 = call i32 @strcmp(ptr noundef nonnull dereferenceable(1) %36, ptr noundef nonnull dereferenceable(5) @.str.518) #31
  %.not37 = icmp eq i32 %38, 0
  br i1 %.not37, label %.backedge, label %39

39:                                               ; preds = %37
  call void (i32, ptr, ...) @mprintf(i32 noundef 5, ptr noundef nonnull @.str.519, ptr noundef nonnull %2) #25
  br label %.loopexit

40:                                               ; preds = %32
  %41 = call fastcc ptr @sha256file(ptr noundef %36, ptr noundef null)
  %.not35 = icmp eq ptr %41, null
  br i1 %.not35, label %42, label %43

42:                                               ; preds = %40
  call void (i32, ptr, ...) @mprintf(i32 noundef 5, ptr noundef nonnull @.str.520, ptr noundef nonnull %3) #25
  br label %.loopexit

43:                                               ; preds = %40
  %44 = load ptr, ptr %29, align 16
  %45 = call i32 @strcmp(ptr noundef nonnull dereferenceable(1) %41, ptr noundef nonnull dereferenceable(1) %44) #31
  %.not36 = icmp eq i32 %45, 0
  br i1 %.not36, label %47, label %46

46:                                               ; preds = %43
  call void (i32, ptr, ...) @mprintf(i32 noundef 5, ptr noundef nonnull @.str.521, ptr noundef nonnull %3) #25
  call void @free(ptr noundef nonnull %41) #25
  br label %.loopexit

47:                                               ; preds = %43
  call void @free(ptr noundef nonnull %41) #25
  br label %.backedge

.backedge:                                        ; preds = %47, %37
  %48 = call ptr @fgets(ptr noundef nonnull %3, i32 noundef 8192, ptr noundef nonnull %23)
  %.not33 = icmp eq ptr %48, null
  br i1 %.not33, label %.loopexit, label %32

.loopexit:                                        ; preds = %.backedge, %.preheader, %46, %42, %39
  %.020 = phi i32 [ -1, %39 ], [ -1, %46 ], [ -1, %42 ], [ 0, %.preheader ], [ 0, %.backedge ]
  %49 = call i32 @fclose(ptr noundef nonnull %23)
  br label %50

50:                                               ; preds = %.loopexit, %30, %24, %18, %6
  %.0 = phi i32 [ -1, %30 ], [ %.020, %.loopexit ], [ -1, %24 ], [ -1, %18 ], [ -1, %6 ]
  ret i32 %.0
}